target datalayout = "e-m:e-p270:32:32-p271:32:32-p272:64:64-i64:64-i128:128-f80:128-n8:16:32:64-S128"
target triple = "x86_64-pc-linux-gnu"

%"struct.folly::detail::(anonymous namespace)::thread_is_dying_global" = type { i32 }

@.str = private unnamed_addr constant [26 x i8] c"pthread_key_create failed\00", align 1

; Function Attrs: alwaysinline mustprogress noreturn uwtable
define linkonce_odr hidden void @_ZN5folly15throw_exceptionISt12system_errorJRiRKNSt3_V214error_categoryERA26_KcEEEvDpOT0_(ptr noundef nonnull align 4 dereferenceable(4) %0, ptr noundef nonnull align 8 dereferenceable(8) %1, ptr noundef nonnull align 1 dereferenceable(26) %2) #11 comdat {
  %4 = alloca ptr, align 8
  %5 = alloca ptr, align 8
  %6 = alloca ptr, align 8
  store ptr %0, ptr %4, align 8, !tbaa !27
  store ptr %1, ptr %5, align 8, !tbaa !29
  store ptr %2, ptr %6, align 8, !tbaa !31
  %7 = load ptr, ptr %4, align 8, !tbaa !27
  %8 = load i32, ptr %7, align 4, !tbaa !26
  %9 = load ptr, ptr %5, align 8, !tbaa !29
  %10 = load ptr, ptr %6, align 8, !tbaa !31
  %11 = getelementptr inbounds [26 x i8], ptr %10, i64 0, i64 0
  call void @_ZN5folly6detail16throw_exception_ISt12system_errorJiRKNSt3_V214error_categoryEPKcEEEvDpT0_(i32 noundef %8, ptr noundef nonnull align 8 dereferenceable(8) %9, ptr noundef %11) #23
  unreachable
}

; Function Attrs: mustprogress uwtable
define internal void @_ZN5folly6detail12_GLOBAL__N_122thread_is_dying_globalC2Ev(ptr noundef nonnull align 4 dereferenceable(4) %0) unnamed_addr #0 align 2 {
  %2 = alloca ptr, align 8
  %3 = alloca i32, align 4
  store ptr %0, ptr %2, align 8, !tbaa !7
  %4 = load ptr, ptr %2, align 8
  %5 = getelementptr inbounds nuw %"struct.folly::detail::(anonymous namespace)::thread_is_dying_global", ptr %4, i32 0, i32 0
  store i32 0, ptr %5, align 4, !tbaa !12
  call void @llvm.lifetime.start.p0(i64 4, ptr %3) #17
  %6 = getelementptr inbounds nuw %"struct.folly::detail::(anonymous namespace)::thread_is_dying_global", ptr %4, i32 0, i32 0
  %7 = call i32 @pthread_key_create(ptr noundef %6, ptr noundef null) #17
  store i32 %7, ptr %3, align 4, !tbaa !26
  %8 = load i32, ptr %3, align 4, !tbaa !26
  %9 = icmp ne i32 %8, 0
  br i1 %9, label %10, label %12

10:                                               ; preds = %1
  %11 = call noundef nonnull align 8 dereferenceable(8) ptr @_ZNSt3_V216generic_categoryEv() #21
  call void @_ZN5folly15throw_exceptionISt12system_errorJRiRKNSt3_V214error_categoryERA26_KcEEEvDpOT0_(ptr noundef nonnull align 4 dereferenceable(4) %3, ptr noundef nonnull align 8 dereferenceable(8) %11, ptr noundef nonnull align 1 dereferenceable(26) @.str) #22
  unreachable

12:                                               ; preds = %1
  call void @llvm.lifetime.end.p0(i64 4, ptr %3) #17
  ret void
}

; Function Attrs: mustprogress uwtable
define internal noundef ptr @_ZN5folly6detail5thunk4makeINS0_12_GLOBAL__N_122thread_is_dying_globalEJEEEPvDpT0_() #0 align 2 personality ptr @__gxx_personality_v0 {
  %1 = alloca ptr, align 8
  %2 = alloca i32, align 4
  %3 = call noalias noundef nonnull ptr @_Znwm(i64 noundef 4) #19
  invoke void @_ZN5folly6detail12_GLOBAL__N_122thread_is_dying_globalC2Ev(ptr noundef nonnull align 4 dereferenceable(4) %3)
          to label %4 unwind label %5

4:                                                ; preds = %0
  ret ptr %3

5:                                                ; preds = %0
  %6 = landingpad { ptr, i32 }
          cleanup
  %7 = extractvalue { ptr, i32 } %6, 0
  store ptr %7, ptr %1, align 8
  %8 = extractvalue { ptr, i32 } %6, 1
  store i32 %8, ptr %2, align 4
  call void @_ZdlPvm(ptr noundef %3, i64 noundef 4) #20
  br label %9

9:                                                ; preds = %5
  %10 = load ptr, ptr %1, align 8
  %11 = load i32, ptr %2, align 4
  %12 = insertvalue { ptr, i32 } poison, ptr %10, 0
  %13 = insertvalue { ptr, i32 } %12, i32 %11, 1
  resume { ptr, i32 } %13
}