; Function Attrs: mustprogress uwtable
define internal noundef nonnull ptr @_ZN5folly6detail5thunk4makeINS0_12_GLOBAL__N_122thread_is_dying_globalEJEEEPvDpT0_() #0 align 2 personality ptr @__gxx_personality_v0 {
  %1 = tail call noalias noundef nonnull dereferenceable(4) ptr @_Znwm(i64 noundef 4) #15
  store i32 0, ptr %1, align 4, !tbaa !8
  %2 = tail call i32 @pthread_key_create(ptr noundef nonnull align 4 dereferenceable(4) %1, ptr noundef null) #14
  %.not.i = icmp eq i32 %2, 0
  br i1 %.not.i, label %_ZN5folly6detail12_GLOBAL__N_122thread_is_dying_globalC2Ev.exit, label %3

3:                                                ; preds = %0
  %4 = tail call noundef nonnull align 8 dereferenceable(8) ptr @_ZNSt3_V216generic_categoryEv() #16
  invoke void @_ZN5folly6detail16throw_exception_ISt12system_errorJiRKNSt3_V214error_categoryEPKcEEEvDpT0_(i32 noundef %2, ptr noundef nonnull align 8 dereferenceable(8) %4, ptr noundef nonnull @.str) #9
          to label %.noexc unwind label %5

.noexc:                                           ; preds = %3
  unreachable

_ZN5folly6detail12_GLOBAL__N_122thread_is_dying_globalC2Ev.exit: ; preds = %0
  ret ptr %1

5:                                                ; preds = %3
  %6 = landingpad { ptr, i32 }
          cleanup
  tail call void @_ZdlPvm(ptr noundef nonnull %1, i64 noundef 4) #17
  resume { ptr, i32 } %6
}